Certificate:
    Data:
        Version: 3 (0x2)
        Serial Number: 9842254476959549720 (0x8896b64ce02c0918)
    Signature Algorithm: sha1WithRSAEncryption
        Issuer: C=US, ST=Texas, O=Default Company Ltd, CN=Sunny Patel
        Validity
            Not Before: Oct 19 20:24:42 2017 GMT
            Not After : Oct 19 20:24:42 2018 GMT
        Subject: C=US, ST=Texas, O=Default Company Ltd, CN=Sunny Patel/emailAddress=laughdonor@gmail.com
        Subject Public Key Info:
            Public Key Algorithm: rsaEncryption
                Public-Key: (2048 bit)
                Modulus:
                    00:b3:0b:c3:43:62:6d:65:b6:ce:21:20:52:e5:e9:
                    dd:3e:5f:18:cb:d3:4e:5b:1d:31:90:8c:de:98:7c:
                    aa:da:73:f4:3e:2a:3a:bd:73:d1:8a:80:7d:68:47:
                    68:f6:28:3b:c8:b6:c3:95:25:3a:44:1a:ed:80:93:
                    4a:59:b8:3d:3d:bc:66:9e:7b:a2:e0:41:6d:57:5e:
                    4a:85:26:a1:f9:f8:e0:e3:c2:2f:57:c2:d2:f8:b6:
                    0f:41:90:bc:d2:4b:0d:1a:7b:40:66:c1:3c:52:cd:
                    be:63:b6:d9:fa:df:4d:e6:06:ff:b3:1b:1e:77:1c:
                    54:47:0f:28:d6:7f:47:5b:bd:2f:66:8f:d1:12:92:
                    ba:32:f6:32:7f:95:19:26:0c:4b:91:65:c5:d0:09:
                    d6:78:6b:2b:90:8d:3c:39:35:30:f9:8d:25:e5:3c:
                    d3:92:cc:d6:fa:8d:11:cb:31:f2:8e:e8:90:ed:d4:
                    ee:bd:6e:ab:2c:7a:0a:09:10:fb:d9:3a:02:f7:d7:
                    38:c0:55:b3:6d:89:bf:be:e0:cd:c6:56:b8:6d:ed:
                    80:da:ac:02:58:45:79:0c:2a:f5:2c:d2:f2:0f:34:
                    ed:29:d8:8a:64:b8:a3:b5:a9:35:ca:72:73:c3:14:
                    37:35:1b:22:d1:aa:4d:b2:6a:cf:f1:4a:01:fe:eb:
                    26:fd
                Exponent: 65537 (0x10001)
        X509v3 extensions:
            X509v3 Basic Constraints: 
                CA:FALSE
            Netscape Comment: 
                OpenSSL Generated Certificate
            X509v3 Subject Key Identifier: 
                B1:AF:9F:E1:52:FF:E5:2F:57:56:18:5E:25:49:D0:26:B3:B6:2A:02
            X509v3 Authority Key Identifier: 
                keyid:2D:5D:DF:84:65:62:65:BE:A2:1F:81:99:28:82:02:A3:8F:EB:4D:07

    Signature Algorithm: sha1WithRSAEncryption
         1e:db:f1:25:0c:db:a9:28:69:60:8c:7a:ab:15:20:3f:71:28:
         ee:85:36:d0:46:18:f5:86:da:c9:96:47:d2:eb:1b:88:12:0b:
         9e:c6:99:ff:d0:6f:9f:fc:2b:ca:ed:c8:55:30:6a:91:0f:62:
         ff:38:f0:3c:ae:85:63:b9:32:fc:4a:37:aa:7d:31:39:ce:a4:
         25:a0:79:11:00:dc:c5:c2:e7:93:37:ad:0d:7c:b9:48:0b:e7:
         5b:d0:a4:1b:94:e0:b8:16:2f:23:5f:f5:fd:fe:cd:de:61:80:
         f4:60:9e:c0:47:02:23:ee:ad:45:7e:01:b5:28:30:34:bb:67:
         50:44:fa:95:75:28:59:c3:e7:37:b8:f1:5a:e0:39:8e:40:52:
         2a:e0:fc:c9:d5:f0:98:ae:43:56:cf:e4:54:28:b2:22:d7:3c:
         29:33:11:be:7e:0c:6e:2a:a4:a9:38:32:06:63:f7:b1:c4:01:
         e6:c6:91:34:dd:46:a5:34:58:30:b6:14:94:21:35:bb:d4:27:
         56:cc:82:c4:f1:d2:e2:46:d8:60:2e:96:38:9e:af:a0:16:5b:
         dc:a0:87:18:b3:70:b1:57:0d:59:8b:e1:ec:6f:1e:8a:37:b7:
         aa:38:2e:b6:a6:bd:69:02:12:1f:0e:df:4d:16:0c:ea:74:26:
         32:4f:37:50
-----BEGIN CERTIFICATE-----
MIIDxTCCAq2gAwIBAgIJAIiWtkzgLAkYMA0GCSqGSIb3DQEBBQUAMFExCzAJBgNV
BAYTAlVTMQ4wDAYDVQQIDAVUZXhhczEcMBoGA1UECgwTRGVmYXVsdCBDb21wYW55
IEx0ZDEUMBIGA1UEAwwLU3VubnkgUGF0ZWwwHhcNMTcxMDE5MjAyNDQyWhcNMTgx
MDE5MjAyNDQyWjB2MQswCQYDVQQGEwJVUzEOMAwGA1UECAwFVGV4YXMxHDAaBgNV
BAoME0RlZmF1bHQgQ29tcGFueSBMdGQxFDASBgNVBAMMC1N1bm55IFBhdGVsMSMw
IQYJKoZIhvcNAQkBFhRsYXVnaGRvbm9yQGdtYWlsLmNvbTCCASIwDQYJKoZIhvcN
AQEBBQADggEPADCCAQoCggEBALMLw0NibWW2ziEgUuXp3T5fGMvTTlsdMZCM3ph8
qtpz9D4qOr1z0YqAfWhHaPYoO8i2w5UlOkQa7YCTSlm4PT28Zp57ouBBbVdeSoUm
ofn44OPCL1fC0vi2D0GQvNJLDRp7QGbBPFLNvmO22frfTeYG/7MbHnccVEcPKNZ/
R1u9L2aP0RKSujL2Mn+VGSYMS5FlxdAJ1nhrK5CNPDk1MPmNJeU805LM1vqNEcsx
8o7okO3U7r1uqyx6CgkQ+9k6AvfXOMBVs22Jv77gzcZWuG3tgNqsAlhFeQwq9SzS
8g807SnYimS4o7WpNcpyc8MUNzUbItGqTbJqz/FKAf7rJv0CAwEAAaN7MHkwCQYD
VR0TBAIwADAsBglghkgBhvhCAQ0EHxYdT3BlblNTTCBHZW5lcmF0ZWQgQ2VydGlm
aWNhdGUwHQYDVR0OBBYEFLGvn+FS/+UvV1YYXiVJ0CaztioCMB8GA1UdIwQYMBaA
FC1d34RlYmW+oh+BmSiCAqOP600HMA0GCSqGSIb3DQEBBQUAA4IBAQAe2/ElDNup
KGlgjHqrFSA/cSjuhTbQRhj1htrJlkfS6xuIEguexpn/0G+f/CvK7chVMGqRD2L/
OPA8roVjuTL8SjeqfTE5zqQloHkRANzFwueTN60NfLlIC+db0KQblOC4Fi8jX/X9
/s3eYYD0YJ7ARwIj7q1FfgG1KDA0u2dQRPqVdShZw+c3uPFa4DmOQFIq4PzJ1fCY
rkNWz+RUKLIi1zwpMxG+fgxuKqSpODIGY/exxAHmxpE03UalNFgwthSUITW71CdW
zILE8dLiRthgLpY4nq+gFlvcoIcYs3CxVw1Zi+Hsbx6KN7eqOC62pr1pAhIfDt9N
FgzqdCYyTzdQ
-----END CERTIFICATE-----
